; ModuleID = 'source-C-CXX/36/1006.c'
source_filename = "source-C-CXX/36/1006.c"
target datalayout = "e-m:e-p270:32:32-p271:32:32-p272:64:64-i64:64-f80:128-n8:16:32:64-S128"
target triple = "x86_64-pc-linux-gnu"

@.str = private unnamed_addr constant [3 x i8] c"%d\00", align 1
@.str.1 = private unnamed_addr constant [3 x i8] c"%s\00", align 1
@.str.2 = private unnamed_addr constant [4 x i8] c"%c\0A\00", align 1
@str = private unnamed_addr constant [3 x i8] c"no\00", align 1

; Function Attrs: nofree nounwind sspstrong uwtable
define dso_local i32 @main() local_unnamed_addr #0 {
  %1 = alloca i32, align 4
  %2 = bitcast i32* %1 to i8*
  call void @llvm.lifetime.start.p0i8(i64 4, i8* nonnull %2) #6
  %3 = tail call noalias align 16 dereferenceable_or_null(100000) i8* @malloc(i64 100000) #6
  %4 = call i32 (i8*, ...) @__isoc99_scanf(i8* getelementptr inbounds ([3 x i8], [3 x i8]* @.str, i64 0, i64 0), i32* nonnull %1)
  %5 = load i32, i32* %1, align 4, !tbaa !5
  %6 = icmp sgt i32 %5, 0
  br i1 %6, label %7, label %41

7:                                                ; preds = %0, %37
  %8 = phi i32 [ %38, %37 ], [ 0, %0 ]
  %9 = call i32 (i8*, ...) @__isoc99_scanf(i8* getelementptr inbounds ([3 x i8], [3 x i8]* @.str.1, i64 0, i64 0), i8* %3)
  %10 = call i64 @strlen(i8* noundef nonnull dereferenceable(1) %3) #7
  %11 = trunc i64 %10 to i32
  %12 = icmp sgt i32 %11, 0
  br i1 %12, label %13, label %35

13:                                               ; preds = %7
  %14 = and i64 %10, 4294967295
  br label %15

15:                                               ; preds = %13, %26
  %16 = phi i64 [ 0, %13 ], [ %27, %26 ]
  %17 = getelementptr inbounds i8, i8* %3, i64 %16
  %18 = load i8, i8* %17, align 1, !tbaa !9
  br label %19

19:                                               ; preds = %15, %29
  %20 = phi i64 [ 0, %15 ], [ %30, %29 ]
  %21 = icmp eq i64 %20, %16
  br i1 %21, label %29, label %22

22:                                               ; preds = %19
  %23 = getelementptr inbounds i8, i8* %3, i64 %20
  %24 = load i8, i8* %23, align 1, !tbaa !9
  %25 = icmp eq i8 %24, %18
  br i1 %25, label %26, label %29

26:                                               ; preds = %22
  %27 = add nuw nsw i64 %16, 1
  %28 = icmp eq i64 %27, %14
  br i1 %28, label %35, label %15, !llvm.loop !10

29:                                               ; preds = %22, %19
  %30 = add nuw nsw i64 %20, 1
  %31 = icmp eq i64 %30, %14
  br i1 %31, label %32, label %19, !llvm.loop !12

32:                                               ; preds = %29
  %33 = sext i8 %18 to i32
  %34 = call i32 (i8*, ...) @printf(i8* nonnull dereferenceable(1) getelementptr inbounds ([4 x i8], [4 x i8]* @.str.2, i64 0, i64 0), i32 %33)
  br label %37

35:                                               ; preds = %26, %7
  %36 = call i32 @puts(i8* nonnull dereferenceable(1) getelementptr inbounds ([3 x i8], [3 x i8]* @str, i64 0, i64 0))
  br label %37

37:                                               ; preds = %32, %35
  %38 = add nuw nsw i32 %8, 1
  %39 = load i32, i32* %1, align 4, !tbaa !5
  %40 = icmp slt i32 %38, %39
  br i1 %40, label %7, label %41, !llvm.loop !13

41:                                               ; preds = %37, %0
  call void @llvm.lifetime.end.p0i8(i64 4, i8* nonnull %2) #6
  ret i32 0
}

; Function Attrs: argmemonly mustprogress nofree nosync nounwind willreturn
declare void @llvm.lifetime.start.p0i8(i64 immarg, i8* nocapture) #1

; Function Attrs: inaccessiblememonly mustprogress nofree nounwind willreturn
declare noalias noundef align 16 i8* @malloc(i64 noundef) local_unnamed_addr #2

; Function Attrs: nofree nounwind
declare noundef i32 @__isoc99_scanf(i8* nocapture noundef readonly, ...) local_unnamed_addr #3

; Function Attrs: argmemonly mustprogress nofree nounwind readonly willreturn
declare i64 @strlen(i8* nocapture) local_unnamed_addr #4

; Function Attrs: nofree nounwind
declare noundef i32 @printf(i8* nocapture noundef readonly, ...) local_unnamed_addr #3

; Function Attrs: argmemonly mustprogress nofree nosync nounwind willreturn
declare void @llvm.lifetime.end.p0i8(i64 immarg, i8* nocapture) #1

; Function Attrs: nofree nounwind
declare noundef i32 @puts(i8* nocapture noundef readonly) local_unnamed_addr #5


!llvm.module.flags = !{!0, !1, !2, !3}
!llvm.ident = !{!4}

!0 = !{i32 1, !"wchar_size", i32 4}
!1 = !{i32 7, !"PIC Level", i32 2}
!2 = !{i32 7, !"PIE Level", i32 2}
!3 = !{i32 7, !"uwtable", i32 1}
!4 = !{!"clang version 13.0.0"}
!5 = !{!6, !6, i64 0}
!6 = !{!"int", !7, i64 0}
!7 = !{!"omnipotent char", !8, i64 0}
!8 = !{!"Simple C/C++ TBAA"}
!9 = !{!7, !7, i64 0}
!10 = distinct !{!10, !11}
!11 = !{!"llvm.loop.mustprogress"}
!12 = distinct !{!12, !11}
!13 = distinct !{!13, !11}
